target datalayout = "e-m:e-p270:32:32-p271:32:32-p272:64:64-i64:64-i128:128-f80:128-n8:16:32:64-S128"
target triple = "x86_64-pc-linux-gnu"

%struct.aeron_frame_info_t_stct = type { i32, i32, %struct.aeron_frame_link_t, %struct.aeron_frame_link_t, %struct.aeron_frame_link_t, %struct.aeron_frame_link_t, ptr, ptr, ptr, ptr, i32 }
%struct.aeron_frame_link_t = type { i32, i32 }
%struct.aeron_packet_info_t = type { i32, i32, i32, i32, i32, i32, i32, i64, i32, i32, i16, i8 }
%struct.aeron_nak_analysis_t = type { ptr, ptr, i32, i32, i32, i32 }
%struct.aeron_term_t_stct = type { ptr, ptr, ptr, ptr, ptr, ptr, i32 }
%struct.aeron_nak_t = type { ptr, ptr, i32, i32 }

; Function Attrs: null_pointer_is_valid sspstrong uwtable
define internal void @aeron_frame_nak_analysis_setup(ptr noundef %0, ptr noundef %1, ptr noundef %2) #0 {
  %4 = alloca ptr, align 8
  %5 = alloca ptr, align 8
  %6 = alloca ptr, align 8
  %7 = alloca ptr, align 8
  store ptr %0, ptr %4, align 8
  store ptr %1, ptr %5, align 8
  store ptr %2, ptr %6, align 8
  call void @llvm.lifetime.start.p0(i64 8, ptr %7) #15
  %8 = call ptr @wmem_file_scope()
  %9 = call noalias ptr @wmem_alloc0(ptr noundef %8, i64 noundef 24) #16
  store ptr %9, ptr %7, align 8
  %10 = load ptr, ptr %6, align 8
  %11 = load ptr, ptr %7, align 8
  %12 = getelementptr inbounds nuw %struct.aeron_nak_t, ptr %11, i32 0, i32 0
  store ptr %10, ptr %12, align 8
  %13 = load ptr, ptr %5, align 8
  %14 = load ptr, ptr %7, align 8
  %15 = getelementptr inbounds nuw %struct.aeron_nak_t, ptr %14, i32 0, i32 1
  store ptr %13, ptr %15, align 8
  %16 = load ptr, ptr %4, align 8
  %17 = getelementptr inbounds nuw %struct.aeron_packet_info_t, ptr %16, i32 0, i32 8
  %18 = load i32, ptr %17, align 8
  %19 = load ptr, ptr %7, align 8
  %20 = getelementptr inbounds nuw %struct.aeron_nak_t, ptr %19, i32 0, i32 2
  store i32 %18, ptr %20, align 8
  %21 = load ptr, ptr %4, align 8
  %22 = getelementptr inbounds nuw %struct.aeron_packet_info_t, ptr %21, i32 0, i32 9
  %23 = load i32, ptr %22, align 4
  %24 = load ptr, ptr %7, align 8
  %25 = getelementptr inbounds nuw %struct.aeron_nak_t, ptr %24, i32 0, i32 3
  store i32 %23, ptr %25, align 4
  %26 = load ptr, ptr %6, align 8
  %27 = getelementptr inbounds nuw %struct.aeron_term_t_stct, ptr %26, i32 0, i32 5
  %28 = load ptr, ptr %27, align 8
  %29 = load ptr, ptr %7, align 8
  call void @wmem_list_append(ptr noundef %28, ptr noundef %29)
  %30 = call ptr @wmem_file_scope()
  %31 = call noalias ptr @wmem_alloc0(ptr noundef %30, i64 noundef 32) #16
  %32 = load ptr, ptr %5, align 8
  %33 = getelementptr inbounds nuw %struct.aeron_frame_info_t_stct, ptr %32, i32 0, i32 7
  store ptr %31, ptr %33, align 8
  %34 = load ptr, ptr %5, align 8
  %35 = load ptr, ptr %5, align 8
  %36 = getelementptr inbounds nuw %struct.aeron_frame_info_t_stct, ptr %35, i32 0, i32 7
  %37 = load ptr, ptr %36, align 8
  %38 = getelementptr inbounds nuw %struct.aeron_nak_analysis_t, ptr %37, i32 0, i32 0
  store ptr %34, ptr %38, align 8
  %39 = call ptr @wmem_file_scope()
  %40 = call noalias ptr @wmem_list_new(ptr noundef %39)
  %41 = load ptr, ptr %5, align 8
  %42 = getelementptr inbounds nuw %struct.aeron_frame_info_t_stct, ptr %41, i32 0, i32 7
  %43 = load ptr, ptr %42, align 8
  %44 = getelementptr inbounds nuw %struct.aeron_nak_analysis_t, ptr %43, i32 0, i32 1
  store ptr %40, ptr %44, align 8
  %45 = load ptr, ptr %4, align 8
  %46 = getelementptr inbounds nuw %struct.aeron_packet_info_t, ptr %45, i32 0, i32 8
  %47 = load i32, ptr %46, align 8
  %48 = load ptr, ptr %5, align 8
  %49 = getelementptr inbounds nuw %struct.aeron_frame_info_t_stct, ptr %48, i32 0, i32 7
  %50 = load ptr, ptr %49, align 8
  %51 = getelementptr inbounds nuw %struct.aeron_nak_analysis_t, ptr %50, i32 0, i32 3
  store i32 %47, ptr %51, align 4
  %52 = load ptr, ptr %4, align 8
  %53 = getelementptr inbounds nuw %struct.aeron_packet_info_t, ptr %52, i32 0, i32 9
  %54 = load i32, ptr %53, align 4
  %55 = load ptr, ptr %5, align 8
  %56 = getelementptr inbounds nuw %struct.aeron_frame_info_t_stct, ptr %55, i32 0, i32 7
  %57 = load ptr, ptr %56, align 8
  %58 = getelementptr inbounds nuw %struct.aeron_nak_analysis_t, ptr %57, i32 0, i32 4
  store i32 %54, ptr %58, align 8
  %59 = load ptr, ptr %4, align 8
  %60 = getelementptr inbounds nuw %struct.aeron_packet_info_t, ptr %59, i32 0, i32 9
  %61 = load i32, ptr %60, align 4
  %62 = load ptr, ptr %5, align 8
  %63 = getelementptr inbounds nuw %struct.aeron_frame_info_t_stct, ptr %62, i32 0, i32 7
  %64 = load ptr, ptr %63, align 8
  %65 = getelementptr inbounds nuw %struct.aeron_nak_analysis_t, ptr %64, i32 0, i32 5
  store i32 %61, ptr %65, align 4
  call void @llvm.lifetime.end.p0(i64 8, ptr %7) #15
  ret void
}