; Function Attrs: null_pointer_is_valid sspstrong uwtable
define internal fastcc void @aeron_frame_nak_analysis_setup(ptr noundef readonly captures(none) %0, ptr noundef nonnull %1, ptr noundef %2) unnamed_addr #0 {
  %4 = tail call ptr @wmem_file_scope()
  %5 = tail call noalias dereferenceable_or_null(24) ptr @wmem_alloc0(ptr noundef %4, i64 noundef 24) #13
  store ptr %2, ptr %5, align 8
  %6 = getelementptr inbounds nuw i8, ptr %5, i64 8
  store ptr %1, ptr %6, align 8
  %7 = getelementptr inbounds nuw i8, ptr %0, i64 40
  %8 = load i32, ptr %7, align 8
  %9 = getelementptr inbounds nuw i8, ptr %5, i64 16
  store i32 %8, ptr %9, align 8
  %10 = getelementptr inbounds nuw i8, ptr %0, i64 44
  %11 = load i32, ptr %10, align 4
  %12 = getelementptr inbounds nuw i8, ptr %5, i64 20
  store i32 %11, ptr %12, align 4
  %13 = getelementptr inbounds nuw i8, ptr %2, i64 40
  %14 = load ptr, ptr %13, align 8
  tail call void @wmem_list_append(ptr noundef %14, ptr noundef %5)
  %15 = tail call ptr @wmem_file_scope()
  %16 = tail call noalias dereferenceable_or_null(32) ptr @wmem_alloc0(ptr noundef %15, i64 noundef 32) #13
  %17 = getelementptr inbounds nuw i8, ptr %1, i64 48
  store ptr %16, ptr %17, align 8
  store ptr %1, ptr %16, align 8
  %18 = tail call ptr @wmem_file_scope()
  %19 = tail call noalias ptr @wmem_list_new(ptr noundef %18)
  %20 = load ptr, ptr %17, align 8
  %21 = getelementptr inbounds nuw i8, ptr %20, i64 8
  store ptr %19, ptr %21, align 8
  %22 = load i32, ptr %7, align 8
  %23 = load ptr, ptr %17, align 8
  %24 = getelementptr inbounds nuw i8, ptr %23, i64 20
  store i32 %22, ptr %24, align 4
  %25 = load i32, ptr %10, align 4
  %26 = load ptr, ptr %17, align 8
  %27 = getelementptr inbounds nuw i8, ptr %26, i64 24
  store i32 %25, ptr %27, align 8
  %28 = load ptr, ptr %17, align 8
  %29 = getelementptr inbounds nuw i8, ptr %28, i64 28
  store i32 %25, ptr %29, align 4
  ret void
}